; Function Attrs: nounwind uwtable
define range(i32 0, 2) i32 @OSSL_ENCODER_CTX_set_output_structure(ptr noundef writeonly captures(address_is_null) %0, ptr noundef %1) local_unnamed_addr #0 {
  %.not = icmp eq ptr %0, null
  %.not6 = icmp eq ptr %1, null
  %or.cond = or i1 %.not, %.not6
  br i1 %or.cond, label %3, label %4, !prof !59

3:                                                ; preds = %2
  tail call void @ERR_new() #8
  tail call void @ERR_set_debug(ptr noundef nonnull @.str, i32 noundef 202, ptr noundef nonnull @__func__.OSSL_ENCODER_CTX_set_output_structure) #8
  tail call void (i32, i32, ptr, ...) @ERR_set_error(i32 noundef 59, i32 noundef 786690, ptr noundef null) #8
  br label %6

4:                                                ; preds = %2
  %5 = getelementptr inbounds nuw i8, ptr %0, i64 16
  store ptr %1, ptr %5, align 8, !tbaa !23
  br label %6

6:                                                ; preds = %4, %3
  %.0 = phi i32 [ 1, %4 ], [ 0, %3 ]
  ret i32 %.0
}